ccopy_reg
_reconstructor
p0
(cgoogle.oauth2.credentials
Credentials
p1
c__builtin__
object
p2
Ntp3
Rp4
(dp5
S'_token_uri'
p6
Vhttps://oauth2.googleapis.com/token
p7
sS'_scopes'
p8
(lp9
S'https://www.googleapis.com/auth/calendar'
p10
asS'_id_token'
p11
NsS'token'
p12
Vya29.Il-iBxUr0OdjrnKQoeEi8nj1cK2x0X08wtz0DiNgS1Q6YuWf6D5eoRKwLsb4sHx3146ybIwrqNDXsIncya_EubCrqzlsRsLshF4kRu5XtUPFHLbZ6hFaSxP08NYSPLgSDQ
p13
sS'_refresh_token'
p14
V1//03flmTLwpssvfCgYIARAAGAMSNwF-L9IrIxsOXKSK_fLUML9uuiaDCKwFugyTwFA9PzxYwBFkMhgzaJgawZ-xmVVbXjnwsGrOBTs
p15
sS'_client_secret'
p16
VOPylBuG0n-n8v65I1P_QYVOL
p17
sS'_client_id'
p18
V305893866346-qds20j19tqrf5m4v9kohi44v3scguu4e.apps.googleusercontent.com
p19
sS'expiry'
p20
cdatetime
datetime
p21
(S'\x07\xe3\n\x18\x10 \t\x0e\x8c\x82'
p22
tp23
Rp24
sb.