ccopy_reg
_reconstructor
p0
(cgoogle.oauth2.credentials
Credentials
p1
c__builtin__
object
p2
Ntp3
Rp4
(dp5
S'_token_uri'
p6
Vhttps://oauth2.googleapis.com/token
p7
sS'_client_secret'
p8
VOPylBuG0n-n8v65I1P_QYVOL
p9
sS'_id_token'
p10
NsS'token'
p11
Vya29.Il-iB44GRFC12D4Visj1LxQdM2Mavw6K7TcEUMLFtTw-MyvTDtQjdqDE-FC5jHLurdU5SzyRbXBVCTe0sC3fOmvyNmGKRx-7B4q5ofDzoiKWCCFg11HlBC2BAreYhpwMPg
p12
sS'_refresh_token'
p13
V1//03flmTLwpssvfCgYIARAAGAMSNwF-L9IrIxsOXKSK_fLUML9uuiaDCKwFugyTwFA9PzxYwBFkMhgzaJgawZ-xmVVbXjnwsGrOBTs
p14
sS'_scopes'
p15
(lp16
S'https://www.googleapis.com/auth/calendar'
p17
asS'_client_id'
p18
V305893866346-qds20j19tqrf5m4v9kohi44v3scguu4e.apps.googleusercontent.com
p19
sS'expiry'
p20
cdatetime
datetime
p21
(S'\x07\xe3\n\x18\x0e\x0c\x02\x0eb\x98'
p22
tp23
Rp24
sb.